target datalayout = "e-m:e-p270:32:32-p271:32:32-p272:64:64-i64:64-i128:128-f80:128-n8:16:32:64-S128"
target triple = "x86_64-pc-linux-gnu"

%struct.Vec_Int_t_ = type { i32, i32, ptr }
%struct.Abc_Obj_t_ = type { ptr, ptr, i32, i32, %struct.Vec_Int_t_, %struct.Vec_Int_t_, %union.anon, %union.anon.0 }
%union.anon = type { ptr }
%union.anon.0 = type { ptr }
%struct.Vec_Ptr_t_ = type { i32, i32, ptr }

; Function Attrs: inlinehint nounwind uwtable
define internal void @Vec_PtrFree(ptr noundef %0) #6 {
  %2 = alloca ptr, align 8
  store ptr %0, ptr %2, align 8, !tbaa !44
  %3 = load ptr, ptr %2, align 8, !tbaa !44
  %4 = getelementptr inbounds nuw %struct.Vec_Ptr_t_, ptr %3, i32 0, i32 2
  %5 = load ptr, ptr %4, align 8, !tbaa !47
  %6 = icmp ne ptr %5, null
  br i1 %6, label %7, label %13

7:                                                ; preds = %1
  %8 = load ptr, ptr %2, align 8, !tbaa !44
  %9 = getelementptr inbounds nuw %struct.Vec_Ptr_t_, ptr %8, i32 0, i32 2
  %10 = load ptr, ptr %9, align 8, !tbaa !47
  call void @free(ptr noundef %10) #9
  %11 = load ptr, ptr %2, align 8, !tbaa !44
  %12 = getelementptr inbounds nuw %struct.Vec_Ptr_t_, ptr %11, i32 0, i32 2
  store ptr null, ptr %12, align 8, !tbaa !47
  br label %14

13:                                               ; preds = %1
  br label %14

14:                                               ; preds = %13, %7
  %15 = load ptr, ptr %2, align 8, !tbaa !44
  %16 = icmp ne ptr %15, null
  br i1 %16, label %17, label %19

17:                                               ; preds = %14
  %18 = load ptr, ptr %2, align 8, !tbaa !44
  call void @free(ptr noundef %18) #9
  store ptr null, ptr %2, align 8, !tbaa !44
  br label %20

19:                                               ; preds = %14
  br label %20

20:                                               ; preds = %19, %17
  ret void
}

; Function Attrs: inlinehint nounwind uwtable
define internal i32 @Abc_ObjIsPi(ptr noundef %0) #6 {
  %2 = alloca ptr, align 8
  store ptr %0, ptr %2, align 8, !tbaa !26
  %3 = load ptr, ptr %2, align 8, !tbaa !26
  %4 = getelementptr inbounds nuw %struct.Abc_Obj_t_, ptr %3, i32 0, i32 3
  %5 = load i32, ptr %4, align 4
  %6 = and i32 %5, 15
  %7 = icmp eq i32 %6, 2
  %8 = zext i1 %7 to i32
  ret i32 %8
}

; Function Attrs: inlinehint nounwind uwtable
define internal i32 @Abc_ObjFanoutNum(ptr noundef %0) #6 {
  %2 = alloca ptr, align 8
  store ptr %0, ptr %2, align 8, !tbaa !26
  %3 = load ptr, ptr %2, align 8, !tbaa !26
  %4 = getelementptr inbounds nuw %struct.Abc_Obj_t_, ptr %3, i32 0, i32 5
  %5 = getelementptr inbounds nuw %struct.Vec_Int_t_, ptr %4, i32 0, i32 1
  %6 = load i32, ptr %5, align 4, !tbaa !58
  ret i32 %6
}

; Function Attrs: inlinehint nounwind uwtable
define internal i32 @Abc_ObjIsNode(ptr noundef %0) #6 {
  %2 = alloca ptr, align 8
  store ptr %0, ptr %2, align 8, !tbaa !26
  %3 = load ptr, ptr %2, align 8, !tbaa !26
  %4 = getelementptr inbounds nuw %struct.Abc_Obj_t_, ptr %3, i32 0, i32 3
  %5 = load i32, ptr %4, align 4
  %6 = and i32 %5, 15
  %7 = icmp eq i32 %6, 7
  %8 = zext i1 %7 to i32
  ret i32 %8
}

; Function Attrs: inlinehint nounwind uwtable
define internal ptr @Vec_PtrEntry(ptr noundef %0, i32 noundef %1) #6 {
  %3 = alloca ptr, align 8
  %4 = alloca i32, align 4
  store ptr %0, ptr %3, align 8, !tbaa !44
  store i32 %1, ptr %4, align 4, !tbaa !8
  %5 = load ptr, ptr %3, align 8, !tbaa !44
  %6 = getelementptr inbounds nuw %struct.Vec_Ptr_t_, ptr %5, i32 0, i32 2
  %7 = load ptr, ptr %6, align 8, !tbaa !47
  %8 = load i32, ptr %4, align 4, !tbaa !8
  %9 = sext i32 %8 to i64
  %10 = getelementptr inbounds ptr, ptr %7, i64 %9
  %11 = load ptr, ptr %10, align 8, !tbaa !45
  ret ptr %11
}

; Function Attrs: inlinehint nounwind uwtable
define internal i32 @Vec_PtrSize(ptr noundef %0) #6 {
  %2 = alloca ptr, align 8
  store ptr %0, ptr %2, align 8, !tbaa !44
  %3 = load ptr, ptr %2, align 8, !tbaa !44
  %4 = getelementptr inbounds nuw %struct.Vec_Ptr_t_, ptr %3, i32 0, i32 1
  %5 = load i32, ptr %4, align 4, !tbaa !35
  ret i32 %5
}

; Function Attrs: inlinehint nounwind uwtable
define internal ptr @Vec_PtrAlloc(i32 noundef %0) #6 {
  %2 = alloca i32, align 4
  %3 = alloca ptr, align 8
  store i32 %0, ptr %2, align 4, !tbaa !8
  call void @llvm.lifetime.start.p0(i64 8, ptr %3) #9
  %4 = call noalias ptr @malloc(i64 noundef 16) #10
  store ptr %4, ptr %3, align 8, !tbaa !44
  %5 = load i32, ptr %2, align 4, !tbaa !8
  %6 = icmp sgt i32 %5, 0
  br i1 %6, label %7, label %11

7:                                                ; preds = %1
  %8 = load i32, ptr %2, align 4, !tbaa !8
  %9 = icmp slt i32 %8, 8
  br i1 %9, label %10, label %11

10:                                               ; preds = %7
  store i32 8, ptr %2, align 4, !tbaa !8
  br label %11

11:                                               ; preds = %10, %7, %1
  %12 = load ptr, ptr %3, align 8, !tbaa !44
  %13 = getelementptr inbounds nuw %struct.Vec_Ptr_t_, ptr %12, i32 0, i32 1
  store i32 0, ptr %13, align 4, !tbaa !35
  %14 = load i32, ptr %2, align 4, !tbaa !8
  %15 = load ptr, ptr %3, align 8, !tbaa !44
  %16 = getelementptr inbounds nuw %struct.Vec_Ptr_t_, ptr %15, i32 0, i32 0
  store i32 %14, ptr %16, align 8, !tbaa !46
  %17 = load ptr, ptr %3, align 8, !tbaa !44
  %18 = getelementptr inbounds nuw %struct.Vec_Ptr_t_, ptr %17, i32 0, i32 0
  %19 = load i32, ptr %18, align 8, !tbaa !46
  %20 = icmp ne i32 %19, 0
  br i1 %20, label %21, label %28

21:                                               ; preds = %11
  %22 = load ptr, ptr %3, align 8, !tbaa !44
  %23 = getelementptr inbounds nuw %struct.Vec_Ptr_t_, ptr %22, i32 0, i32 0
  %24 = load i32, ptr %23, align 8, !tbaa !46
  %25 = sext i32 %24 to i64
  %26 = mul i64 8, %25
  %27 = call noalias ptr @malloc(i64 noundef %26) #10
  br label %29

28:                                               ; preds = %11
  br label %29

29:                                               ; preds = %28, %21
  %30 = phi ptr [ %27, %21 ], [ null, %28 ]
  %31 = load ptr, ptr %3, align 8, !tbaa !44
  %32 = getelementptr inbounds nuw %struct.Vec_Ptr_t_, ptr %31, i32 0, i32 2
  store ptr %30, ptr %32, align 8, !tbaa !47
  %33 = load ptr, ptr %3, align 8, !tbaa !44
  call void @llvm.lifetime.end.p0(i64 8, ptr %3) #9
  ret ptr %33
}

; Function Attrs: nounwind uwtable
define void @Abc_NtkDeleteObj_rec(ptr noundef %0, i32 noundef %1) #0 {
  %3 = alloca ptr, align 8
  %4 = alloca i32, align 4
  %5 = alloca ptr, align 8
  %6 = alloca i32, align 4
  store ptr %0, ptr %3, align 8, !tbaa !26
  store i32 %1, ptr %4, align 4, !tbaa !8
  call void @llvm.lifetime.start.p0(i64 8, ptr %5) #9
  call void @llvm.lifetime.start.p0(i64 4, ptr %6) #9
  %7 = call ptr @Vec_PtrAlloc(i32 noundef 100)
  store ptr %7, ptr %5, align 8, !tbaa !44
  %8 = load ptr, ptr %3, align 8, !tbaa !26
  %9 = load ptr, ptr %5, align 8, !tbaa !44
  call void @Abc_NodeCollectFanins(ptr noundef %8, ptr noundef %9)
  %10 = load ptr, ptr %3, align 8, !tbaa !26
  call void @Abc_NtkDeleteObj(ptr noundef %10)
  %11 = load i32, ptr %4, align 4, !tbaa !8
  %12 = icmp ne i32 %11, 0
  br i1 %12, label %13, label %41

13:                                               ; preds = %2
  store i32 0, ptr %6, align 4, !tbaa !8
  br label %14

14:                                               ; preds = %37, %13
  %15 = load i32, ptr %6, align 4, !tbaa !8
  %16 = load ptr, ptr %5, align 8, !tbaa !44
  %17 = call i32 @Vec_PtrSize(ptr noundef %16)
  %18 = icmp slt i32 %15, %17
  br i1 %18, label %19, label %23

19:                                               ; preds = %14
  %20 = load ptr, ptr %5, align 8, !tbaa !44
  %21 = load i32, ptr %6, align 4, !tbaa !8
  %22 = call ptr @Vec_PtrEntry(ptr noundef %20, i32 noundef %21)
  store ptr %22, ptr %3, align 8, !tbaa !26
  br label %23

23:                                               ; preds = %19, %14
  %24 = phi i1 [ false, %14 ], [ true, %19 ]
  br i1 %24, label %25, label %40

25:                                               ; preds = %23
  %26 = load ptr, ptr %3, align 8, !tbaa !26
  %27 = call i32 @Abc_ObjIsNode(ptr noundef %26)
  %28 = icmp ne i32 %27, 0
  br i1 %28, label %29, label %36

29:                                               ; preds = %25
  %30 = load ptr, ptr %3, align 8, !tbaa !26
  %31 = call i32 @Abc_ObjFanoutNum(ptr noundef %30)
  %32 = icmp eq i32 %31, 0
  br i1 %32, label %33, label %36

33:                                               ; preds = %29
  %34 = load ptr, ptr %3, align 8, !tbaa !26
  %35 = load i32, ptr %4, align 4, !tbaa !8
  call void @Abc_NtkDeleteObj_rec(ptr noundef %34, i32 noundef %35)
  br label %36

36:                                               ; preds = %33, %29, %25
  br label %37

37:                                               ; preds = %36
  %38 = load i32, ptr %6, align 4, !tbaa !8
  %39 = add nsw i32 %38, 1
  store i32 %39, ptr %6, align 4, !tbaa !8
  br label %14, !llvm.loop !56

40:                                               ; preds = %23
  br label %69

41:                                               ; preds = %2
  store i32 0, ptr %6, align 4, !tbaa !8
  br label %42

42:                                               ; preds = %65, %41
  %43 = load i32, ptr %6, align 4, !tbaa !8
  %44 = load ptr, ptr %5, align 8, !tbaa !44
  %45 = call i32 @Vec_PtrSize(ptr noundef %44)
  %46 = icmp slt i32 %43, %45
  br i1 %46, label %47, label %51

47:                                               ; preds = %42
  %48 = load ptr, ptr %5, align 8, !tbaa !44
  %49 = load i32, ptr %6, align 4, !tbaa !8
  %50 = call ptr @Vec_PtrEntry(ptr noundef %48, i32 noundef %49)
  store ptr %50, ptr %3, align 8, !tbaa !26
  br label %51

51:                                               ; preds = %47, %42
  %52 = phi i1 [ false, %42 ], [ true, %47 ]
  br i1 %52, label %53, label %68

53:                                               ; preds = %51
  %54 = load ptr, ptr %3, align 8, !tbaa !26
  %55 = call i32 @Abc_ObjIsPi(ptr noundef %54)
  %56 = icmp ne i32 %55, 0
  br i1 %56, label %64, label %57

57:                                               ; preds = %53
  %58 = load ptr, ptr %3, align 8, !tbaa !26
  %59 = call i32 @Abc_ObjFanoutNum(ptr noundef %58)
  %60 = icmp eq i32 %59, 0
  br i1 %60, label %61, label %64

61:                                               ; preds = %57
  %62 = load ptr, ptr %3, align 8, !tbaa !26
  %63 = load i32, ptr %4, align 4, !tbaa !8
  call void @Abc_NtkDeleteObj_rec(ptr noundef %62, i32 noundef %63)
  br label %64

64:                                               ; preds = %61, %57, %53
  br label %65

65:                                               ; preds = %64
  %66 = load i32, ptr %6, align 4, !tbaa !8
  %67 = add nsw i32 %66, 1
  store i32 %67, ptr %6, align 4, !tbaa !8
  br label %42, !llvm.loop !57

68:                                               ; preds = %51
  br label %69

69:                                               ; preds = %68, %40
  %70 = load ptr, ptr %5, align 8, !tbaa !44
  call void @Vec_PtrFree(ptr noundef %70)
  call void @llvm.lifetime.end.p0(i64 4, ptr %6) #9
  call void @llvm.lifetime.end.p0(i64 8, ptr %5) #9
  ret void
}