; Function Attrs: nounwind uwtable
define void @Abc_NtkDeleteObj_rec(ptr noundef %0, i32 noundef %1) local_unnamed_addr #0 {
  %3 = tail call noalias dereferenceable_or_null(16) ptr @malloc(i64 noundef 16) #11
  %4 = getelementptr inbounds nuw i8, ptr %3, i64 4
  store i32 0, ptr %4, align 4, !tbaa !32
  store i32 100, ptr %3, align 8, !tbaa !34
  %5 = tail call noalias dereferenceable_or_null(800) ptr @malloc(i64 noundef 800) #11
  %6 = getelementptr inbounds nuw i8, ptr %3, i64 8
  store ptr %5, ptr %6, align 8, !tbaa !35
  tail call void @Abc_NodeCollectFanins(ptr noundef %0, ptr noundef nonnull %3) #10
  tail call void @Abc_NtkDeleteObj(ptr noundef %0)
  %.not = icmp eq i32 %1, 0
  %.val2841 = load i32, ptr %4, align 4, !tbaa !32
  %7 = icmp sgt i32 %.val2841, 0
  br i1 %.not, label %.preheader, label %.preheader37

.preheader37:                                     ; preds = %2
  br i1 %7, label %.lr.ph, label %.critedge

.preheader:                                       ; preds = %2
  br i1 %7, label %.lr.ph43, label %.critedge

.lr.ph:                                           ; preds = %.preheader37, %16
  %.val49 = phi i32 [ %.val, %16 ], [ %.val2841, %.preheader37 ]
  %indvars.iv = phi i64 [ %indvars.iv.next, %16 ], [ 0, %.preheader37 ]
  %.val29 = load ptr, ptr %6, align 8, !tbaa !35
  %8 = getelementptr inbounds nuw ptr, ptr %.val29, i64 %indvars.iv
  %9 = load ptr, ptr %8, align 8, !tbaa !36
  %10 = getelementptr i8, ptr %9, i64 20
  %.val31 = load i32, ptr %10, align 4
  %11 = and i32 %.val31, 15
  %.not35 = icmp eq i32 %11, 7
  br i1 %.not35, label %12, label %16

12:                                               ; preds = %.lr.ph
  %13 = getelementptr i8, ptr %9, i64 44
  %.val32 = load i32, ptr %13, align 4, !tbaa !53
  %14 = icmp eq i32 %.val32, 0
  br i1 %14, label %15, label %16

15:                                               ; preds = %12
  tail call void @Abc_NtkDeleteObj_rec(ptr noundef nonnull %9, i32 noundef %1)
  %.val.pre = load i32, ptr %4, align 4, !tbaa !32
  br label %16

16:                                               ; preds = %.lr.ph, %12, %15
  %.val = phi i32 [ %.val49, %.lr.ph ], [ %.val49, %12 ], [ %.val.pre, %15 ]
  %indvars.iv.next = add nuw nsw i64 %indvars.iv, 1
  %17 = sext i32 %.val to i64
  %18 = icmp slt i64 %indvars.iv.next, %17
  br i1 %18, label %.lr.ph, label %.critedge, !llvm.loop !54

.lr.ph43:                                         ; preds = %.preheader, %27
  %.val2851 = phi i32 [ %.val28, %27 ], [ %.val2841, %.preheader ]
  %indvars.iv46 = phi i64 [ %indvars.iv.next47, %27 ], [ 0, %.preheader ]
  %.val30 = load ptr, ptr %6, align 8, !tbaa !35
  %19 = getelementptr inbounds nuw ptr, ptr %.val30, i64 %indvars.iv46
  %20 = load ptr, ptr %19, align 8, !tbaa !36
  %21 = getelementptr i8, ptr %20, i64 20
  %.val34 = load i32, ptr %21, align 4
  %22 = and i32 %.val34, 15
  %.not36 = icmp eq i32 %22, 2
  br i1 %.not36, label %27, label %23

23:                                               ; preds = %.lr.ph43
  %24 = getelementptr i8, ptr %20, i64 44
  %.val33 = load i32, ptr %24, align 4, !tbaa !53
  %25 = icmp eq i32 %.val33, 0
  br i1 %25, label %26, label %27

26:                                               ; preds = %23
  tail call void @Abc_NtkDeleteObj_rec(ptr noundef nonnull %20, i32 noundef 0)
  %.val28.pre = load i32, ptr %4, align 4, !tbaa !32
  br label %27

27:                                               ; preds = %.lr.ph43, %23, %26
  %.val28 = phi i32 [ %.val2851, %.lr.ph43 ], [ %.val2851, %23 ], [ %.val28.pre, %26 ]
  %indvars.iv.next47 = add nuw nsw i64 %indvars.iv46, 1
  %28 = sext i32 %.val28 to i64
  %29 = icmp slt i64 %indvars.iv.next47, %28
  br i1 %29, label %.lr.ph43, label %.critedge, !llvm.loop !55

.critedge:                                        ; preds = %16, %27, %.preheader37, %.preheader
  %30 = load ptr, ptr %6, align 8, !tbaa !35
  %.not.i = icmp eq ptr %30, null
  br i1 %.not.i, label %Vec_PtrFree.exit, label %31

31:                                               ; preds = %.critedge
  tail call void @free(ptr noundef nonnull %30) #10
  br label %Vec_PtrFree.exit

Vec_PtrFree.exit:                                 ; preds = %.critedge, %31
  tail call void @free(ptr noundef nonnull %3) #10
  ret void
}